target datalayout = "e-m:e-p270:32:32-p271:32:32-p272:64:64-i64:64-i128:128-f80:128-n8:16:32:64-S128"
target triple = "x86_64-pc-linux-gnu"

%struct._address = type { i32, i32, ptr, ptr }
%struct._ws_ip4 = type { i8, i8, i32, i16, i16, i8, i8, i16, %struct._address, %struct._address, i32 }
%struct._ws_ip6 = type { i8, i8, i32, i32, i8, i8, %struct._address, %struct._address, i32 }

; Function Attrs: nounwind uwtable
define internal i32 @ws_ip_protocol(ptr noundef %0) #0 {
  %2 = alloca i32, align 4
  %3 = alloca ptr, align 8
  %4 = alloca ptr, align 8
  %5 = alloca ptr, align 8
  store ptr %0, ptr %3, align 8
  %6 = load ptr, ptr %3, align 8
  %7 = icmp ne ptr %6, null
  br i1 %7, label %8, label %47

8:                                                ; preds = %1
  %9 = load ptr, ptr %3, align 8
  %10 = icmp ne ptr %9, null
  br i1 %10, label %11, label %18

11:                                               ; preds = %8
  %12 = load ptr, ptr %3, align 8
  %13 = load i8, ptr %12, align 1
  %14 = zext i8 %13 to i32
  %15 = icmp eq i32 %14, 4
  br i1 %15, label %16, label %18

16:                                               ; preds = %11
  %17 = load ptr, ptr %3, align 8
  br label %19

18:                                               ; preds = %11, %8
  br label %19

19:                                               ; preds = %18, %16
  %20 = phi ptr [ %17, %16 ], [ null, %18 ]
  store ptr %20, ptr %4, align 8
  %21 = icmp ne ptr %20, null
  br i1 %21, label %22, label %27

22:                                               ; preds = %19
  %23 = load ptr, ptr %4, align 8
  %24 = getelementptr inbounds %struct._ws_ip4, ptr %23, i32 0, i32 6
  %25 = load i8, ptr %24, align 1
  %26 = zext i8 %25 to i32
  store i32 %26, ptr %2, align 4
  br label %48

27:                                               ; preds = %19
  %28 = load ptr, ptr %3, align 8
  %29 = icmp ne ptr %28, null
  br i1 %29, label %30, label %37

30:                                               ; preds = %27
  %31 = load ptr, ptr %3, align 8
  %32 = load i8, ptr %31, align 1
  %33 = zext i8 %32 to i32
  %34 = icmp eq i32 %33, 6
  br i1 %34, label %35, label %37

35:                                               ; preds = %30
  %36 = load ptr, ptr %3, align 8
  br label %38

37:                                               ; preds = %30, %27
  br label %38

38:                                               ; preds = %37, %35
  %39 = phi ptr [ %36, %35 ], [ null, %37 ]
  store ptr %39, ptr %5, align 8
  %40 = icmp ne ptr %39, null
  br i1 %40, label %41, label %46

41:                                               ; preds = %38
  %42 = load ptr, ptr %5, align 8
  %43 = getelementptr inbounds %struct._ws_ip6, ptr %42, i32 0, i32 4
  %44 = load i8, ptr %43, align 4
  %45 = zext i8 %44 to i32
  store i32 %45, ptr %2, align 4
  br label %48

46:                                               ; preds = %38
  br label %47

47:                                               ; preds = %46, %1
  store i32 -1, ptr %2, align 4
  br label %48

48:                                               ; preds = %47, %41, %22
  %49 = load i32, ptr %2, align 4
  ret i32 %49
}

; Function Attrs: nounwind uwtable
define internal i32 @dissect_tapa_heur(ptr noundef %0, ptr noundef %1, ptr noundef %2, ptr noundef %3) #0 {
  %5 = alloca i32, align 4
  %6 = alloca ptr, align 8
  %7 = alloca ptr, align 8
  %8 = alloca ptr, align 8
  %9 = alloca ptr, align 8
  store ptr %0, ptr %6, align 8
  store ptr %1, ptr %7, align 8
  store ptr %2, ptr %8, align 8
  store ptr %3, ptr %9, align 8
  %10 = load ptr, ptr %9, align 8
  %11 = call i32 @ws_ip_protocol(ptr noundef %10)
  %12 = icmp eq i32 %11, 4
  br i1 %12, label %13, label %30

13:                                               ; preds = %4
  %14 = load ptr, ptr %6, align 8
  %15 = call zeroext i8 @tvb_get_guint8(ptr noundef %14, i32 noundef 0)
  %16 = zext i8 %15 to i32
  %17 = and i32 %16, 240
  %18 = icmp ne i32 %17, 64
  br i1 %18, label %19, label %30

19:                                               ; preds = %13
  %20 = load ptr, ptr %6, align 8
  %21 = call zeroext i16 @tvb_get_ntohs(ptr noundef %20, i32 noundef 2)
  %22 = zext i16 %21 to i32
  %23 = icmp slt i32 %22, 20
  br i1 %23, label %24, label %30

24:                                               ; preds = %19
  %25 = load ptr, ptr %6, align 8
  %26 = load ptr, ptr %7, align 8
  %27 = load ptr, ptr %8, align 8
  %28 = load ptr, ptr %9, align 8
  %29 = call i32 @dissect_tapa_static(ptr noundef %25, ptr noundef %26, ptr noundef %27, ptr noundef %28)
  store i32 1, ptr %5, align 4
  br label %31

30:                                               ; preds = %19, %13, %4
  store i32 0, ptr %5, align 4
  br label %31

31:                                               ; preds = %30, %24
  %32 = load i32, ptr %5, align 4
  ret i32 %32
}