; Function Attrs: nounwind uwtable
define internal range(i32 0, 2) i32 @dissect_tapa_heur(ptr noundef %0, ptr noundef %1, ptr noundef %2, ptr noundef readonly %3) #0 {
  %.not.i = icmp eq ptr %3, null
  br i1 %.not.i, label %ws_ip_protocol.exit.thread, label %5

5:                                                ; preds = %4
  %6 = load i8, ptr %3, align 1
  switch i8 %6, label %ws_ip_protocol.exit.thread [
    i8 4, label %ws_ip_protocol.exit
    i8 6, label %7
  ]

7:                                                ; preds = %5
  br label %ws_ip_protocol.exit

ws_ip_protocol.exit:                              ; preds = %5, %7
  %.sink = phi i64 [ 12, %7 ], [ 13, %5 ]
  %8 = getelementptr inbounds nuw i8, ptr %3, i64 %.sink
  %.0.i.in = load i8, ptr %8, align 1
  %9 = icmp eq i8 %.0.i.in, 4
  br i1 %9, label %10, label %ws_ip_protocol.exit.thread

10:                                               ; preds = %ws_ip_protocol.exit
  %11 = tail call zeroext i8 @tvb_get_guint8(ptr noundef %0, i32 noundef 0) #3
  %12 = and i8 %11, -16
  %.not = icmp eq i8 %12, 64
  br i1 %.not, label %ws_ip_protocol.exit.thread, label %13

13:                                               ; preds = %10
  %14 = tail call zeroext i16 @tvb_get_ntohs(ptr noundef %0, i32 noundef 2) #3
  %15 = icmp ult i16 %14, 20
  br i1 %15, label %16, label %ws_ip_protocol.exit.thread

16:                                               ; preds = %13
  %17 = tail call i32 @dissect_tapa_static(ptr noundef %0, ptr noundef %1, ptr noundef %2, ptr nonnull poison)
  br label %ws_ip_protocol.exit.thread

ws_ip_protocol.exit.thread:                       ; preds = %5, %4, %ws_ip_protocol.exit, %10, %13, %16
  %.0 = phi i32 [ 1, %16 ], [ 0, %13 ], [ 0, %10 ], [ 0, %ws_ip_protocol.exit ], [ 0, %4 ], [ 0, %5 ]
  ret i32 %.0
}